; Function Attrs: mustprogress nofree norecurse nosync nounwind willreturn memory(argmem: write) uwtable
define void @_ZN5faiss17IndexPreTransformC2Ev(ptr noundef nonnull writeonly align 8 captures(none) dereferenceable(73) initializes((0, 12), (16, 26), (28, 36), (40, 73)) %0) unnamed_addr #3 align 2 {
  %2 = getelementptr inbounds nuw i8, ptr %0, i64 8
  store i32 0, ptr %2, align 8, !tbaa !59
  %3 = getelementptr inbounds nuw i8, ptr %0, i64 16
  store i64 0, ptr %3, align 8, !tbaa !52
  %4 = getelementptr inbounds nuw i8, ptr %0, i64 24
  store i8 0, ptr %4, align 8, !tbaa !32
  %5 = getelementptr inbounds nuw i8, ptr %0, i64 25
  store i8 1, ptr %5, align 1, !tbaa !21
  %6 = getelementptr inbounds nuw i8, ptr %0, i64 28
  store i32 1, ptr %6, align 4, !tbaa !80
  %7 = getelementptr inbounds nuw i8, ptr %0, i64 32
  store float 0.000000e+00, ptr %7, align 8, !tbaa !81
  store ptr getelementptr inbounds nuw inrange(-16, 184) (i8, ptr @_ZTVN5faiss17IndexPreTransformE, i64 16), ptr %0, align 8, !tbaa !42
  %8 = getelementptr inbounds nuw i8, ptr %0, i64 40
  tail call void @llvm.memset.p0.i64(ptr noundef nonnull align 8 dereferenceable(33) %8, i8 0, i64 33, i1 false)
  ret void
}